target datalayout = "e-m:e-p270:32:32-p271:32:32-p272:64:64-i64:64-i128:128-f80:128-n8:16:32:64-S128"
target triple = "x86_64-pc-linux-gnu"

%struct.index_state = type { ptr, i32, i32, i32, i32, ptr, ptr, ptr, %struct.cache_time, i8, i32, %struct.hashmap, %struct.hashmap, %struct.object_id, ptr, ptr, ptr, ptr, ptr, ptr, ptr }
%struct.cache_time = type { i32, i32 }
%struct.hashmap = type { ptr, ptr, ptr, i32, i32, i32, i32, i8 }
%struct.object_id = type { [32 x i8], i32 }

; Function Attrs: nounwind uwtable
define dso_local i32 @is_index_unborn(ptr noundef %0) #0 {
  %2 = alloca ptr, align 8
  store ptr %0, ptr %2, align 8, !tbaa !4
  %3 = load ptr, ptr %2, align 8, !tbaa !4
  %4 = getelementptr inbounds nuw %struct.index_state, ptr %3, i32 0, i32 2
  %5 = load i32, ptr %4, align 4, !tbaa !34
  %6 = icmp ne i32 %5, 0
  br i1 %6, label %14, label %7

7:                                                ; preds = %1
  %8 = load ptr, ptr %2, align 8, !tbaa !4
  %9 = getelementptr inbounds nuw %struct.index_state, ptr %8, i32 0, i32 8
  %10 = getelementptr inbounds nuw %struct.cache_time, ptr %9, i32 0, i32 0
  %11 = load i32, ptr %10, align 8, !tbaa !44
  %12 = icmp ne i32 %11, 0
  %13 = xor i1 %12, true
  br label %14

14:                                               ; preds = %7, %1
  %15 = phi i1 [ false, %1 ], [ %13, %7 ]
  %16 = zext i1 %15 to i32
  ret i32 %16
}